target datalayout = "e-m:e-p270:32:32-p271:32:32-p272:64:64-i64:64-i128:128-f80:128-n8:16:32:64-S128"
target triple = "x86_64-pc-linux-gnu"

%"class.Imath_3_2::Vec3" = type { double, double, double }

; Function Attrs: inlinehint mustprogress nounwind uwtable
define linkonce_odr hidden void @_ZN9Imath_3_24Vec3IdEC2Eddd(ptr noundef nonnull align 8 dereferenceable(24) %0, double noundef %1, double noundef %2, double noundef %3) unnamed_addr #7 comdat align 2 {
  %5 = alloca ptr, align 8
  %6 = alloca double, align 8
  %7 = alloca double, align 8
  %8 = alloca double, align 8
  store ptr %0, ptr %5, align 8, !tbaa !3
  store double %1, ptr %6, align 8, !tbaa !11
  store double %2, ptr %7, align 8, !tbaa !11
  store double %3, ptr %8, align 8, !tbaa !11
  %9 = load ptr, ptr %5, align 8
  %10 = getelementptr inbounds nuw %"class.Imath_3_2::Vec3", ptr %9, i32 0, i32 0
  %11 = load double, ptr %6, align 8, !tbaa !11
  store double %11, ptr %10, align 8, !tbaa !8
  %12 = getelementptr inbounds nuw %"class.Imath_3_2::Vec3", ptr %9, i32 0, i32 1
  %13 = load double, ptr %7, align 8, !tbaa !11
  store double %13, ptr %12, align 8, !tbaa !12
  %14 = getelementptr inbounds nuw %"class.Imath_3_2::Vec3", ptr %9, i32 0, i32 2
  %15 = load double, ptr %8, align 8, !tbaa !11
  store double %15, ptr %14, align 8, !tbaa !13
  ret void
}

; Function Attrs: mustprogress nounwind uwtable
define void @_ZN9Imath_3_29rgb2hsv_dERKNS_4Vec3IdEE(ptr dead_on_unwind noalias writable sret(%"class.Imath_3_2::Vec3") align 8 %0, ptr noundef nonnull align 8 dereferenceable(24) %1) #4 {
  %3 = alloca ptr, align 8
  %4 = alloca ptr, align 8
  %5 = alloca ptr, align 8
  %6 = alloca ptr, align 8
  %7 = alloca ptr, align 8
  %8 = alloca double, align 8
  %9 = alloca double, align 8
  %10 = alloca double, align 8
  %11 = alloca double, align 8
  %12 = alloca double, align 8
  %13 = alloca double, align 8
  %14 = alloca double, align 8
  store ptr %0, ptr %3, align 8
  store ptr %1, ptr %4, align 8, !tbaa !3
  call void @llvm.lifetime.start.p0(i64 8, ptr %5) #3
  %15 = load ptr, ptr %4, align 8, !tbaa !3
  %16 = getelementptr inbounds nuw %"class.Imath_3_2::Vec3", ptr %15, i32 0, i32 0
  store ptr %16, ptr %5, align 8, !tbaa !23
  call void @llvm.lifetime.start.p0(i64 8, ptr %6) #3
  %17 = load ptr, ptr %4, align 8, !tbaa !3
  %18 = getelementptr inbounds nuw %"class.Imath_3_2::Vec3", ptr %17, i32 0, i32 1
  store ptr %18, ptr %6, align 8, !tbaa !23
  call void @llvm.lifetime.start.p0(i64 8, ptr %7) #3
  %19 = load ptr, ptr %4, align 8, !tbaa !3
  %20 = getelementptr inbounds nuw %"class.Imath_3_2::Vec3", ptr %19, i32 0, i32 2
  store ptr %20, ptr %7, align 8, !tbaa !23
  call void @llvm.lifetime.start.p0(i64 8, ptr %8) #3
  %21 = load ptr, ptr %5, align 8, !tbaa !23
  %22 = load double, ptr %21, align 8, !tbaa !11
  %23 = load ptr, ptr %6, align 8, !tbaa !23
  %24 = load double, ptr %23, align 8, !tbaa !11
  %25 = fcmp ogt double %22, %24
  br i1 %25, label %26, label %40

26:                                               ; preds = %2
  %27 = load ptr, ptr %5, align 8, !tbaa !23
  %28 = load double, ptr %27, align 8, !tbaa !11
  %29 = load ptr, ptr %7, align 8, !tbaa !23
  %30 = load double, ptr %29, align 8, !tbaa !11
  %31 = fcmp ogt double %28, %30
  br i1 %31, label %32, label %35

32:                                               ; preds = %26
  %33 = load ptr, ptr %5, align 8, !tbaa !23
  %34 = load double, ptr %33, align 8, !tbaa !11
  br label %38

35:                                               ; preds = %26
  %36 = load ptr, ptr %7, align 8, !tbaa !23
  %37 = load double, ptr %36, align 8, !tbaa !11
  br label %38

38:                                               ; preds = %35, %32
  %39 = phi double [ %34, %32 ], [ %37, %35 ]
  br label %54

40:                                               ; preds = %2
  %41 = load ptr, ptr %6, align 8, !tbaa !23
  %42 = load double, ptr %41, align 8, !tbaa !11
  %43 = load ptr, ptr %7, align 8, !tbaa !23
  %44 = load double, ptr %43, align 8, !tbaa !11
  %45 = fcmp ogt double %42, %44
  br i1 %45, label %46, label %49

46:                                               ; preds = %40
  %47 = load ptr, ptr %6, align 8, !tbaa !23
  %48 = load double, ptr %47, align 8, !tbaa !11
  br label %52

49:                                               ; preds = %40
  %50 = load ptr, ptr %7, align 8, !tbaa !23
  %51 = load double, ptr %50, align 8, !tbaa !11
  br label %52

52:                                               ; preds = %49, %46
  %53 = phi double [ %48, %46 ], [ %51, %49 ]
  br label %54

54:                                               ; preds = %52, %38
  %55 = phi double [ %39, %38 ], [ %53, %52 ]
  store double %55, ptr %8, align 8, !tbaa !11
  call void @llvm.lifetime.start.p0(i64 8, ptr %9) #3
  %56 = load ptr, ptr %5, align 8, !tbaa !23
  %57 = load double, ptr %56, align 8, !tbaa !11
  %58 = load ptr, ptr %6, align 8, !tbaa !23
  %59 = load double, ptr %58, align 8, !tbaa !11
  %60 = fcmp olt double %57, %59
  br i1 %60, label %61, label %75

61:                                               ; preds = %54
  %62 = load ptr, ptr %5, align 8, !tbaa !23
  %63 = load double, ptr %62, align 8, !tbaa !11
  %64 = load ptr, ptr %7, align 8, !tbaa !23
  %65 = load double, ptr %64, align 8, !tbaa !11
  %66 = fcmp olt double %63, %65
  br i1 %66, label %67, label %70

67:                                               ; preds = %61
  %68 = load ptr, ptr %5, align 8, !tbaa !23
  %69 = load double, ptr %68, align 8, !tbaa !11
  br label %73

70:                                               ; preds = %61
  %71 = load ptr, ptr %7, align 8, !tbaa !23
  %72 = load double, ptr %71, align 8, !tbaa !11
  br label %73

73:                                               ; preds = %70, %67
  %74 = phi double [ %69, %67 ], [ %72, %70 ]
  br label %89

75:                                               ; preds = %54
  %76 = load ptr, ptr %6, align 8, !tbaa !23
  %77 = load double, ptr %76, align 8, !tbaa !11
  %78 = load ptr, ptr %7, align 8, !tbaa !23
  %79 = load double, ptr %78, align 8, !tbaa !11
  %80 = fcmp olt double %77, %79
  br i1 %80, label %81, label %84

81:                                               ; preds = %75
  %82 = load ptr, ptr %6, align 8, !tbaa !23
  %83 = load double, ptr %82, align 8, !tbaa !11
  br label %87

84:                                               ; preds = %75
  %85 = load ptr, ptr %7, align 8, !tbaa !23
  %86 = load double, ptr %85, align 8, !tbaa !11
  br label %87

87:                                               ; preds = %84, %81
  %88 = phi double [ %83, %81 ], [ %86, %84 ]
  br label %89

89:                                               ; preds = %87, %73
  %90 = phi double [ %74, %73 ], [ %88, %87 ]
  store double %90, ptr %9, align 8, !tbaa !11
  call void @llvm.lifetime.start.p0(i64 8, ptr %10) #3
  %91 = load double, ptr %8, align 8, !tbaa !11
  %92 = load double, ptr %9, align 8, !tbaa !11
  %93 = fsub double %91, %92
  store double %93, ptr %10, align 8, !tbaa !11
  call void @llvm.lifetime.start.p0(i64 8, ptr %11) #3
  %94 = load double, ptr %8, align 8, !tbaa !11
  store double %94, ptr %11, align 8, !tbaa !11
  call void @llvm.lifetime.start.p0(i64 8, ptr %12) #3
  store double 0.000000e+00, ptr %12, align 8, !tbaa !11
  call void @llvm.lifetime.start.p0(i64 8, ptr %13) #3
  store double 0.000000e+00, ptr %13, align 8, !tbaa !11
  %95 = load double, ptr %8, align 8, !tbaa !11
  %96 = fcmp une double %95, 0.000000e+00
  br i1 %96, label %97, label %101

97:                                               ; preds = %89
  %98 = load double, ptr %10, align 8, !tbaa !11
  %99 = load double, ptr %8, align 8, !tbaa !11
  %100 = fdiv double %98, %99
  store double %100, ptr %12, align 8, !tbaa !11
  br label %101

101:                                              ; preds = %97, %89
  %102 = load double, ptr %12, align 8, !tbaa !11
  %103 = fcmp une double %102, 0.000000e+00
  br i1 %103, label %104, label %150

104:                                              ; preds = %101
  call void @llvm.lifetime.start.p0(i64 8, ptr %14) #3
  %105 = load ptr, ptr %5, align 8, !tbaa !23
  %106 = load double, ptr %105, align 8, !tbaa !11
  %107 = load double, ptr %8, align 8, !tbaa !11
  %108 = fcmp oeq double %106, %107
  br i1 %108, label %109, label %117

109:                                              ; preds = %104
  %110 = load ptr, ptr %6, align 8, !tbaa !23
  %111 = load double, ptr %110, align 8, !tbaa !11
  %112 = load ptr, ptr %7, align 8, !tbaa !23
  %113 = load double, ptr %112, align 8, !tbaa !11
  %114 = fsub double %111, %113
  %115 = load double, ptr %10, align 8, !tbaa !11
  %116 = fdiv double %114, %115
  store double %116, ptr %14, align 8, !tbaa !11
  br label %141

117:                                              ; preds = %104
  %118 = load ptr, ptr %6, align 8, !tbaa !23
  %119 = load double, ptr %118, align 8, !tbaa !11
  %120 = load double, ptr %8, align 8, !tbaa !11
  %121 = fcmp oeq double %119, %120
  br i1 %121, label %122, label %131

122:                                              ; preds = %117
  %123 = load ptr, ptr %7, align 8, !tbaa !23
  %124 = load double, ptr %123, align 8, !tbaa !11
  %125 = load ptr, ptr %5, align 8, !tbaa !23
  %126 = load double, ptr %125, align 8, !tbaa !11
  %127 = fsub double %124, %126
  %128 = load double, ptr %10, align 8, !tbaa !11
  %129 = fdiv double %127, %128
  %130 = fadd double 2.000000e+00, %129
  store double %130, ptr %14, align 8, !tbaa !11
  br label %140

131:                                              ; preds = %117
  %132 = load ptr, ptr %5, align 8, !tbaa !23
  %133 = load double, ptr %132, align 8, !tbaa !11
  %134 = load ptr, ptr %6, align 8, !tbaa !23
  %135 = load double, ptr %134, align 8, !tbaa !11
  %136 = fsub double %133, %135
  %137 = load double, ptr %10, align 8, !tbaa !11
  %138 = fdiv double %136, %137
  %139 = fadd double 4.000000e+00, %138
  store double %139, ptr %14, align 8, !tbaa !11
  br label %140

140:                                              ; preds = %131, %122
  br label %141

141:                                              ; preds = %140, %109
  %142 = load double, ptr %14, align 8, !tbaa !11
  %143 = fdiv double %142, 6.000000e+00
  store double %143, ptr %13, align 8, !tbaa !11
  %144 = load double, ptr %13, align 8, !tbaa !11
  %145 = fcmp olt double %144, 0.000000e+00
  br i1 %145, label %146, label %149

146:                                              ; preds = %141
  %147 = load double, ptr %13, align 8, !tbaa !11
  %148 = fadd double %147, 1.000000e+00
  store double %148, ptr %13, align 8, !tbaa !11
  br label %149

149:                                              ; preds = %146, %141
  call void @llvm.lifetime.end.p0(i64 8, ptr %14) #3
  br label %150

150:                                              ; preds = %149, %101
  %151 = load double, ptr %13, align 8, !tbaa !11
  %152 = load double, ptr %12, align 8, !tbaa !11
  %153 = load double, ptr %11, align 8, !tbaa !11
  call void @_ZN9Imath_3_24Vec3IdEC2Eddd(ptr noundef nonnull align 8 dereferenceable(24) %0, double noundef %151, double noundef %152, double noundef %153) #3
  call void @llvm.lifetime.end.p0(i64 8, ptr %13) #3
  call void @llvm.lifetime.end.p0(i64 8, ptr %12) #3
  call void @llvm.lifetime.end.p0(i64 8, ptr %11) #3
  call void @llvm.lifetime.end.p0(i64 8, ptr %10) #3
  call void @llvm.lifetime.end.p0(i64 8, ptr %9) #3
  call void @llvm.lifetime.end.p0(i64 8, ptr %8) #3
  call void @llvm.lifetime.end.p0(i64 8, ptr %7) #3
  call void @llvm.lifetime.end.p0(i64 8, ptr %6) #3
  call void @llvm.lifetime.end.p0(i64 8, ptr %5) #3
  ret void
}